; Function Attrs: nofree nosync nounwind memory(readwrite, inaccessiblemem: none) uwtable
define float @If_CutEdgeDerefed(ptr noundef readonly captures(none) %0, ptr noundef readonly captures(none) %1) local_unnamed_addr #8 {
  %3 = getelementptr inbounds nuw i8, ptr %1, i64 28
  %4 = load i64, ptr %3, align 4
  %5 = trunc i64 %4 to i32
  %6 = icmp ult i32 %5, 33554432
  br i1 %6, label %7, label %10

7:                                                ; preds = %2
  %8 = lshr i32 %5, 24
  %9 = uitofp nneg i32 %8 to float
  br label %13

10:                                               ; preds = %2
  %11 = tail call float @If_CutEdgeRef(ptr noundef %0, ptr noundef nonnull %1)
  %12 = tail call float @If_CutEdgeDeref(ptr noundef %0, ptr noundef nonnull %1)
  br label %13

13:                                               ; preds = %10, %7
  %.0 = phi float [ %9, %7 ], [ %12, %10 ]
  ret float %.0
}